Certificate:
    Data:
        Version: 3 (0x2)
        Serial Number: 2 (0x2)
        Signature Algorithm: sha256WithRSAEncryption
        Issuer: O=Test Org, CN=Test Org rauc CA Development
        Validity
            Not Before: Jan  1 00:00:00 1970 GMT
            Not After : Dec 31 23:59:59 9999 GMT
        Subject: O=Test Org, CN=Test Org Development-1
        Subject Public Key Info:
            Public Key Algorithm: rsaEncryption
                Public-Key: (2048 bit)
                Modulus:
                    00:9c:2d:5d:20:b1:68:38:45:7f:ed:43:4a:e0:7d:
                    45:71:9e:6a:68:1a:6d:a5:de:7b:18:1f:fc:fb:6f:
                    19:74:df:c0:19:f1:1f:5a:fd:50:ae:4e:56:b4:f9:
                    d8:20:a1:0f:1d:86:76:bd:d7:82:5a:3c:b1:e0:71:
                    54:76:d7:57:65:cd:92:31:eb:da:a4:8e:05:cc:91:
                    98:07:d5:b3:33:41:0b:ee:a3:5e:24:d4:0c:4d:cc:
                    7a:4c:e6:e0:f9:19:3c:e1:a1:1c:d3:a1:84:93:95:
                    bb:a2:09:cc:f9:44:15:99:be:21:fc:10:01:6c:1b:
                    5e:62:24:9d:c4:fe:6a:64:44:7e:09:98:9d:71:2e:
                    27:00:ce:30:15:93:ec:b2:fa:67:84:5d:7e:1f:f2:
                    59:1d:82:4e:eb:5f:d9:27:d8:4e:49:00:05:c2:ba:
                    3a:78:fc:a3:bc:65:59:92:f4:73:86:96:0b:5a:c3:
                    c6:f3:52:2d:60:2b:aa:ef:59:f1:b7:b2:8d:4b:63:
                    f0:b3:12:ba:b7:0c:f5:26:05:92:a3:ec:21:d3:69:
                    d3:df:99:53:af:21:73:72:df:fc:9c:83:22:22:9f:
                    74:5b:9a:a3:29:71:1a:06:49:79:70:45:8e:5d:4e:
                    30:77:26:fa:a0:93:55:42:3e:a6:17:75:63:4e:b7:
                    c1:89
                Exponent: 65537 (0x10001)
        X509v3 extensions:
            X509v3 Subject Key Identifier: 
                CC:16:BA:87:D4:80:18:FE:F0:09:72:76:BD:68:F1:51:B9:6B:7B:BA
            X509v3 Authority Key Identifier: 
                keyid:63:A6:3A:7C:AF:72:B0:84:EF:12:CA:40:EB:47:77:59:36:46:4F:7B
                DirName:/O=Test Org/CN=Test Org rauc CA Development
                serial:01
            X509v3 Basic Constraints: 
                CA:FALSE
    Signature Algorithm: sha256WithRSAEncryption
    Signature Value:
        7f:69:3a:63:e8:34:04:ef:54:6f:85:58:1b:b1:93:59:41:85:
        1f:be:0f:c2:65:2b:35:9f:b8:82:96:d6:d1:64:af:ea:80:2a:
        9b:a4:e8:19:fd:3d:67:0f:c4:d8:74:3c:bc:51:ce:b0:9e:e8:
        20:f4:3d:9d:e4:ee:be:2a:99:1d:2e:5d:8f:b4:2c:12:50:07:
        38:77:e1:dc:84:49:7e:33:6b:ad:1e:d3:df:29:7a:fd:39:a2:
        98:84:bd:ec:c3:87:78:23:7a:03:f9:13:9e:17:54:a2:cb:f7:
        16:d3:e5:0b:b9:95:52:9a:d3:dd:66:cc:d3:39:33:3a:cb:9b:
        1d:a7:82:be:e0:3d:10:d6:6e:ba:ff:39:e5:ef:44:07:74:ef:
        7e:f2:75:5d:4a:12:67:20:04:a4:77:f6:7f:16:61:a1:ad:5d:
        bc:92:19:b5:10:f7:7c:a3:5f:ad:f2:8a:1c:64:69:33:bd:63:
        42:f4:51:69:ca:3a:13:1a:b2:86:92:05:5c:89:29:da:6b:86:
        ee:91:55:f8:73:cd:13:22:9e:51:86:12:4d:d4:4d:69:e8:bb:
        72:94:95:0c:45:87:00:4a:85:68:5b:1c:65:05:07:42:a3:90:
        71:5b:bd:bd:e1:75:65:48:26:83:e1:89:1e:3d:4b:4a:8e:5f:
        f8:06:44:0a
-----BEGIN CERTIFICATE-----
MIIDfTCCAmWgAwIBAgIBAjANBgkqhkiG9w0BAQsFADA6MREwDwYDVQQKDAhUZXN0
IE9yZzElMCMGA1UEAwwcVGVzdCBPcmcgcmF1YyBDQSBEZXZlbG9wbWVudDAgFw03
MDAxMDEwMDAwMDBaGA85OTk5MTIzMTIzNTk1OVowNDERMA8GA1UECgwIVGVzdCBP
cmcxHzAdBgNVBAMMFlRlc3QgT3JnIERldmVsb3BtZW50LTEwggEiMA0GCSqGSIb3
DQEBAQUAA4IBDwAwggEKAoIBAQCcLV0gsWg4RX/tQ0rgfUVxnmpoGm2l3nsYH/z7
bxl038AZ8R9a/VCuTla0+dggoQ8dhna914JaPLHgcVR211dlzZIx69qkjgXMkZgH
1bMzQQvuo14k1AxNzHpM5uD5GTzhoRzToYSTlbuiCcz5RBWZviH8EAFsG15iJJ3E
/mpkRH4JmJ1xLicAzjAVk+yy+meEXX4f8lkdgk7rX9kn2E5JAAXCujp4/KO8ZVmS
9HOGlgtaw8bzUi1gK6rvWfG3so1LY/CzErq3DPUmBZKj7CHTadPfmVOvIXNy3/yc
gyIin3RbmqMpcRoGSXlwRY5dTjB3Jvqgk1VCPqYXdWNOt8GJAgMBAAGjgZEwgY4w
HQYDVR0OBBYEFMwWuofUgBj+8Alydr1o8VG5a3u6MGIGA1UdIwRbMFmAFGOmOnyv
crCE7xLKQOtHd1k2Rk97oT6kPDA6MREwDwYDVQQKDAhUZXN0IE9yZzElMCMGA1UE
AwwcVGVzdCBPcmcgcmF1YyBDQSBEZXZlbG9wbWVudIIBATAJBgNVHRMEAjAAMA0G
CSqGSIb3DQEBCwUAA4IBAQB/aTpj6DQE71RvhVgbsZNZQYUfvg/CZSs1n7iCltbR
ZK/qgCqbpOgZ/T1nD8TYdDy8Uc6wnugg9D2d5O6+KpkdLl2PtCwSUAc4d+HchEl+
M2utHtPfKXr9OaKYhL3sw4d4I3oD+ROeF1Siy/cW0+ULuZVSmtPdZszTOTM6y5sd
p4K+4D0Q1m66/znl70QHdO9+8nVdShJnIASkd/Z/FmGhrV28khm1EPd8o1+t8ooc
ZGkzvWNC9FFpyjoTGrKGkgVciSnaa4bukVX4c80TIp5RhhJN1E1p6LtylJUMRYcA
SoVoWxxlBQdCo5BxW7294XVlSCaD4YkePUtKjl/4BkQK
-----END CERTIFICATE-----
