Certificate:
    Data:
        Version: 3 (0x2)
        Serial Number: 1 (0x1)
        Signature Algorithm: sha256WithRSAEncryption
        Issuer: O=Test Org, CN=Test Org rauc CA Development
        Validity
            Not Before: Jan  1 00:00:00 1970 GMT
            Not After : Dec 31 23:59:59 9999 GMT
        Subject: O=Test Org, CN=Test Org rauc CA Development
        Subject Public Key Info:
            Public Key Algorithm: rsaEncryption
                Public-Key: (2048 bit)
                Modulus:
                    00:b2:2f:91:27:42:f3:53:8b:7b:50:f1:64:40:c1:
                    54:09:04:f9:ea:5d:c5:a9:c3:b4:18:2b:43:08:cc:
                    27:64:99:8f:42:f3:de:96:9e:20:28:cb:8f:d7:1f:
                    5e:8f:95:23:8b:a8:14:af:77:3a:06:fc:59:61:7d:
                    37:ec:a5:25:ce:86:90:86:80:05:f3:cf:ff:86:0c:
                    22:00:72:77:59:82:59:2d:c9:1d:d8:fa:88:81:c9:
                    6f:b9:61:b1:47:77:ec:d8:b0:c5:9a:11:e8:24:9d:
                    03:a3:8d:1f:ac:a4:ad:bc:ea:1b:1b:c8:65:c5:e5:
                    53:2b:6b:09:91:1a:d5:ff:5d:13:9a:06:48:35:ea:
                    8d:d9:8a:b0:69:81:14:65:ef:5b:b3:44:34:96:e8:
                    df:48:df:86:11:df:74:1c:67:38:a0:87:6b:a5:7d:
                    4e:1d:ea:3f:3e:f4:1a:05:4c:29:8a:69:e2:69:af:
                    6f:44:51:1b:cc:b1:73:ed:e7:c9:e3:15:d4:5e:c2:
                    09:e1:ca:dd:8d:16:37:55:72:d3:72:46:4c:56:51:
                    2f:26:da:23:ce:c8:f8:4b:bd:6b:4b:d1:e3:4f:c1:
                    cb:39:5b:24:96:5f:56:ae:b1:0a:f7:aa:ee:66:c5:
                    74:97:29:d1:d4:df:b6:12:e4:c5:35:d6:93:f6:ec:
                    b0:6b
                Exponent: 65537 (0x10001)
        X509v3 extensions:
            X509v3 Subject Key Identifier: 
                63:A6:3A:7C:AF:72:B0:84:EF:12:CA:40:EB:47:77:59:36:46:4F:7B
            X509v3 Authority Key Identifier: 
                keyid:63:A6:3A:7C:AF:72:B0:84:EF:12:CA:40:EB:47:77:59:36:46:4F:7B
                DirName:/O=Test Org/CN=Test Org rauc CA Development
                serial:01
            X509v3 Basic Constraints: 
                CA:TRUE
    Signature Algorithm: sha256WithRSAEncryption
    Signature Value:
        26:a8:1d:8c:a7:72:2f:1b:ef:ee:b8:c4:a6:54:44:dc:ca:06:
        30:ef:24:96:c6:65:d8:7a:a3:41:be:f6:ec:ab:81:b2:7f:e3:
        47:bc:77:2f:9c:af:c0:cc:75:ae:2c:7b:e7:6e:a9:fe:30:3c:
        e4:e2:d7:aa:ad:a5:06:90:b4:cf:a4:7d:a0:65:b0:e2:8b:4e:
        ac:64:89:cc:51:18:ab:f0:b2:35:58:dc:ef:08:64:83:fa:fa:
        84:34:98:bf:87:c8:7c:e3:36:7d:ad:77:55:f3:40:f5:34:39:
        9b:6b:49:21:c0:f6:6a:77:b9:4e:ae:48:ab:9b:4c:96:cc:c8:
        d4:c0:cf:4f:74:af:64:51:a6:69:8e:fa:99:f7:cd:59:d6:57:
        f7:16:28:b7:58:c8:4a:d1:31:4e:4c:80:41:a3:71:f3:af:c8:
        33:44:9e:c9:db:42:15:60:2a:05:43:ec:e6:22:ab:9e:e1:2c:
        2b:d0:2e:81:5a:ba:56:ab:82:cd:c2:76:ee:11:c0:2d:83:56:
        9d:0b:ae:9e:f5:d7:9d:63:d7:5f:1e:64:47:81:16:d1:af:f0:
        92:24:d9:20:a8:81:83:c3:28:28:71:ca:cf:5b:c0:43:48:c9:
        7c:62:df:c6:7e:ab:1c:66:9f:f4:87:f5:03:ab:7a:6e:a9:7c:
        b4:dd:d5:88
-----BEGIN CERTIFICATE-----
MIIDhjCCAm6gAwIBAgIBATANBgkqhkiG9w0BAQsFADA6MREwDwYDVQQKDAhUZXN0
IE9yZzElMCMGA1UEAwwcVGVzdCBPcmcgcmF1YyBDQSBEZXZlbG9wbWVudDAgFw03
MDAxMDEwMDAwMDBaGA85OTk5MTIzMTIzNTk1OVowOjERMA8GA1UECgwIVGVzdCBP
cmcxJTAjBgNVBAMMHFRlc3QgT3JnIHJhdWMgQ0EgRGV2ZWxvcG1lbnQwggEiMA0G
CSqGSIb3DQEBAQUAA4IBDwAwggEKAoIBAQCyL5EnQvNTi3tQ8WRAwVQJBPnqXcWp
w7QYK0MIzCdkmY9C896WniAoy4/XH16PlSOLqBSvdzoG/FlhfTfspSXOhpCGgAXz
z/+GDCIAcndZglktyR3Y+oiByW+5YbFHd+zYsMWaEegknQOjjR+spK286hsbyGXF
5VMrawmRGtX/XROaBkg16o3ZirBpgRRl71uzRDSW6N9I34YR33QcZzigh2ulfU4d
6j8+9BoFTCmKaeJpr29EURvMsXPt58njFdRewgnhyt2NFjdVctNyRkxWUS8m2iPO
yPhLvWtL0eNPwcs5WySWX1ausQr3qu5mxXSXKdHU37YS5MU11pP27LBrAgMBAAGj
gZQwgZEwHQYDVR0OBBYEFGOmOnyvcrCE7xLKQOtHd1k2Rk97MGIGA1UdIwRbMFmA
FGOmOnyvcrCE7xLKQOtHd1k2Rk97oT6kPDA6MREwDwYDVQQKDAhUZXN0IE9yZzEl
MCMGA1UEAwwcVGVzdCBPcmcgcmF1YyBDQSBEZXZlbG9wbWVudIIBATAMBgNVHRME
BTADAQH/MA0GCSqGSIb3DQEBCwUAA4IBAQAmqB2Mp3IvG+/uuMSmVETcygYw7ySW
xmXYeqNBvvbsq4Gyf+NHvHcvnK/AzHWuLHvnbqn+MDzk4teqraUGkLTPpH2gZbDi
i06sZInMURir8LI1WNzvCGSD+vqENJi/h8h84zZ9rXdV80D1NDmba0khwPZqd7lO
rkirm0yWzMjUwM9PdK9kUaZpjvqZ981Z1lf3Fii3WMhK0TFOTIBBo3Hzr8gzRJ7J
20IVYCoFQ+zmIque4Swr0C6BWrpWq4LNwnbuEcAtg1adC66e9dedY9dfHmRHgRbR
r/CSJNkgqIGDwygoccrPW8BDSMl8Yt/GfqscZp/0h/UDq3puqXy03dWI
-----END CERTIFICATE-----
